Certificate:
    Data:
        Version: 3 (0x2)
        Serial Number:
            45:cf:05:b3:43:e4:25:26:07:9f:fc:75:4f:8c:df:9e
        Signature Algorithm: ecdsa-with-SHA384
        Issuer: CN=Demo Fido2 TLS CA
        Validity
            Not Before: Mar 12 13:41:21 2024 GMT
            Not After : Jun 15 13:41:21 2026 GMT
        Subject: CN=demo.fido2.tls.edu
        Subject Public Key Info:
            Public Key Algorithm: id-ecPublicKey
                Public-Key: (384 bit)
                pub:
                    04:28:a0:84:26:55:28:50:6d:49:94:b6:fa:2b:1a:
                    b7:21:75:61:87:4d:59:7c:0d:fd:04:6a:0b:3a:98:
                    a4:78:87:88:dd:44:8f:da:43:72:c9:a9:0c:90:03:
                    00:c5:41:98:96:f6:23:63:e7:82:05:9f:94:d8:42:
                    66:bf:7b:7f:f6:af:71:90:6a:e6:90:68:7d:3b:2b:
                    c6:6f:07:7c:87:34:b8:13:ca:6a:3b:c0:79:76:79:
                    d6:51:eb:3c:84:ed:48
                ASN1 OID: secp384r1
                NIST CURVE: P-384
        X509v3 extensions:
            X509v3 Basic Constraints: 
                CA:FALSE
            X509v3 Subject Key Identifier: 
                B1:B7:BB:05:D4:34:4D:DD:E4:B8:9B:E4:E4:47:85:FD:A6:D8:C3:66
            X509v3 Authority Key Identifier: 
                keyid:1B:A3:86:ED:E0:37:97:6A:65:B9:A8:3D:0D:C9:53:57:D8:95:24:13
                DirName:/CN=Demo Fido2 TLS CA
                serial:0A:E0:2D:25:EF:A7:65:99:59:B2:C8:46:72:BD:AD:E4:B2:9F:AE:84
            X509v3 Extended Key Usage: 
                TLS Web Server Authentication
            X509v3 Key Usage: 
                Digital Signature, Key Encipherment
            X509v3 Subject Alternative Name: 
                DNS:demo.fido2.tls.edu, DNS:localhost, IP Address:127.0.0.1
    Signature Algorithm: ecdsa-with-SHA384
    Signature Value:
        30:64:02:30:79:55:db:dd:ac:75:39:39:12:a7:e7:21:f7:06:
        86:97:56:57:e8:fa:54:f5:cf:22:43:83:6c:51:b2:c0:05:8c:
        b4:6b:ba:7e:14:f7:47:a8:33:74:43:f5:6d:a8:50:2f:02:30:
        41:e5:a9:ee:9a:d1:86:44:67:16:a8:59:80:16:90:fe:28:a6:
        ca:d0:61:5b:18:2f:ee:3b:80:d3:b3:c9:1e:95:79:2f:d8:ab:
        43:44:78:22:84:c9:84:60:48:4a:37:0e
-----BEGIN CERTIFICATE-----
MIICTDCCAdOgAwIBAgIQRc8Fs0PkJSYHn/x1T4zfnjAKBggqhkjOPQQDAzAcMRow
GAYDVQQDDBFEZW1vIEZpZG8yIFRMUyBDQTAeFw0yNDAzMTIxMzQxMjFaFw0yNjA2
MTUxMzQxMjFaMB0xGzAZBgNVBAMMEmRlbW8uZmlkbzIudGxzLmVkdTB2MBAGByqG
SM49AgEGBSuBBAAiA2IABCighCZVKFBtSZS2+isatyF1YYdNWXwN/QRqCzqYpHiH
iN1Ej9pDcsmpDJADAMVBmJb2I2PnggWflNhCZr97f/avcZBq5pBofTsrxm8HfIc0
uBPKajvAeXZ51lHrPITtSKOB2DCB1TAJBgNVHRMEAjAAMB0GA1UdDgQWBBSxt7sF
1DRN3eS4m+TkR4X9ptjDZjBXBgNVHSMEUDBOgBQbo4bt4DeXamW5qD0NyVNX2JUk
E6EgpB4wHDEaMBgGA1UEAwwRRGVtbyBGaWRvMiBUTFMgQ0GCFArgLSXvp2WZWbLI
RnK9reSyn66EMBMGA1UdJQQMMAoGCCsGAQUFBwMBMAsGA1UdDwQEAwIFoDAuBgNV
HREEJzAlghJkZW1vLmZpZG8yLnRscy5lZHWCCWxvY2FsaG9zdIcEfwAAATAKBggq
hkjOPQQDAwNnADBkAjB5VdvdrHU5ORKn5yH3BoaXVlfo+lT1zyJDg2xRssAFjLRr
un4U90eoM3RD9W2oUC8CMEHlqe6a0YZEZxaoWYAWkP4opsrQYVsYL+47gNOzyR6V
eS/Yq0NEeCKEyYRgSEo3Dg==
-----END CERTIFICATE-----
